target datalayout = "e-m:e-p270:32:32-p271:32:32-p272:64:64-i64:64-i128:128-f80:128-n8:16:32:64-S128"
target triple = "x86_64-pc-linux-gnu"

%"class.smt::eq_justification" = type { ptr }
%class.symbol = type { ptr }
%"class.smt::justification.base" = type <{ ptr, i8 }>
%class.u_map = type { %class.map }
%class.map = type { %class.table2map }
%class.table2map = type { %class.core_hashtable.8 }
%class.core_hashtable.8 = type <{ ptr, i32, i32, i32, [4 x i8] }>
%class.obj_map.23 = type { %class.core_hashtable.24 }
%class.core_hashtable.24 = type <{ ptr, i32, i32, i32, [4 x i8] }>
%class.ref_vector.48 = type { %class.ref_vector_core.49 }
%class.ref_vector_core.49 = type { %class.ref_manager_wrapper.50, %class.ptr_vector.51 }
%class.ref_manager_wrapper.50 = type { ptr }
%class.ptr_vector.51 = type { %class.vector.52 }
%class.vector.52 = type { ptr }
%class.ptr_vector.56 = type { %class.vector.57 }
%class.vector.57 = type { ptr }
%class.svector.86 = type { %class.vector.87 }
%class.vector.87 = type { ptr }
%class.ptr_vector.165 = type { %class.vector.166 }
%class.vector.166 = type { ptr }
%class.ptr_vector.163 = type { %class.vector.164 }
%class.vector.164 = type { ptr }
%class.ptr_vector = type { %class.vector.3 }
%class.vector.3 = type { ptr }
%class.svector.4 = type { %class.vector.5 }
%class.vector.5 = type { ptr }
%class.obj_ref.80 = type { ptr, ptr }
%class.svector.194 = type { %class.vector.195 }
%class.vector.195 = type { ptr }
%class.ref_vector = type { %class.ref_vector_core }
%class.ref_vector_core = type { %class.ref_manager_wrapper, %class.ptr_vector }
%class.ref_manager_wrapper = type { ptr }
%class.svector.236 = type { %class.vector.237 }
%class.vector.237 = type { ptr }
%class.ref_vector.151 = type { %class.ref_vector_core.152 }
%class.ref_vector_core.152 = type { %class.ref_manager_wrapper.153, %class.ptr_vector.154 }
%class.ref_manager_wrapper.153 = type { ptr }
%class.ptr_vector.154 = type { %class.vector.155 }
%class.vector.155 = type { ptr }
%"class.smt::conflict_resolution" = type <{ ptr, ptr, ptr, ptr, ptr, ptr, i32, [4 x i8], %class.svector.194, %class.ref_vector, i32, i32, %class.ptr_vector.165, i32, [4 x i8], %class.svector.286, %class.obj_pair_set, ptr, ptr, %class.svector.289, %class.obj_map.291, %class.obj_pair_map.296, %class.map.301, %class.ref_vector.48, %class.ref_vector.151, %class.obj_ref.80, %class.svector.194, %class.svector.194, %class.svector.4, %class.svector.4, %class.approx_set_tpl, [4 x i8] }>
%class.svector.286 = type { %class.vector.287 }
%class.vector.287 = type { ptr }
%class.obj_pair_set = type { %class.chashtable.288 }
%class.chashtable.288 = type { ptr, i32, i32, i32, i32, i32, i32, i32, ptr, ptr, ptr }
%class.svector.289 = type { %class.vector.290 }
%class.vector.290 = type { ptr }
%class.obj_map.291 = type { %class.core_hashtable.292 }
%class.core_hashtable.292 = type <{ ptr, i32, i32, i32, [4 x i8] }>
%class.obj_pair_map.296 = type { %class.core_hashtable.297 }
%class.core_hashtable.297 = type <{ ptr, i32, i32, i32, [4 x i8] }>
%class.map.301 = type { %class.table2map.302 }
%class.table2map.302 = type { %class.core_hashtable.303 }
%class.core_hashtable.303 = type <{ ptr, i32, i32, i32, [4 x i8] }>
%class.approx_set_tpl = type { i32 }
%"class.smt::enode" = type { ptr, ptr, ptr, ptr, i32, i32, i32, i16, i32, i8, i8, %class.ptr_vector.163, %class.id_var_list, %"struct.smt::trans_justification", %class.approx_set, %class.approx_set, [0 x ptr] }
%class.id_var_list = type { i32, ptr }
%"struct.smt::trans_justification" = type { ptr, %"class.smt::eq_justification" }
%class.approx_set = type { %class.approx_set_tpl.307 }
%class.approx_set_tpl.307 = type { i64 }
%class.ast_manager = type { %class.reslimit, %class.small_object_allocator, %class.family_manager, %class.parray_manager, %class.dependency_manager, %class.parray_manager.274, %class.ptr_vector.277, i32, i8, %class.ast_table, %class.obj_map.23, %class.id_gen, %class.id_gen, ptr, ptr, ptr, ptr, ptr, i32, i8, [3 x i8], %class.u_map, ptr, i8, i8, ptr, %class.symbol, %class.obj_map.281, ptr }
%class.reslimit = type { %"struct.std::atomic", i8, i64, i64, %class.svector.236, %class.ptr_vector.265 }
%"struct.std::atomic" = type { %"struct.std::__atomic_base" }
%"struct.std::__atomic_base" = type { i32 }
%class.ptr_vector.265 = type { %class.vector.266 }
%class.vector.266 = type { ptr }
%class.small_object_allocator = type { [32 x ptr], [32 x ptr], i64 }
%class.family_manager = type { i32, %class.symbol_table, %class.svector.270 }
%class.symbol_table = type { %class.core_hashtable.267, %class.vector.269, %class.svector.86 }
%class.core_hashtable.267 = type <{ ptr, i32, i32, i32, [4 x i8] }>
%class.vector.269 = type { ptr }
%class.svector.270 = type { %class.vector.271 }
%class.vector.271 = type { ptr }
%class.parray_manager = type { ptr, ptr, %class.ptr_vector.272, %class.ptr_vector.272 }
%class.ptr_vector.272 = type { %class.vector.273 }
%class.vector.273 = type { ptr }
%class.dependency_manager = type { ptr, ptr, %class.ptr_vector.56 }
%class.parray_manager.274 = type { ptr, ptr, %class.ptr_vector.275, %class.ptr_vector.275 }
%class.ptr_vector.275 = type { %class.vector.276 }
%class.vector.276 = type { ptr }
%class.ptr_vector.277 = type { %class.vector.278 }
%class.vector.278 = type { ptr }
%class.ast_table = type { %class.chashtable.279 }
%class.chashtable.279 = type { ptr, i32, i32, i32, i32, i32, i32, i32, ptr, ptr, ptr }
%class.id_gen = type { i32, %class.svector.4 }
%class.obj_map.281 = type { %class.core_hashtable.282 }
%class.core_hashtable.282 = type <{ ptr, i32, i32, i32, [4 x i8] }>
%"class.smt::eq_root_propagation_justification" = type { %"class.smt::justification.base", ptr }
%class.app = type { %class.expr, ptr, i32, %struct.app_flags, [0 x ptr] }
%class.expr = type { %class.ast }
%class.ast = type { i32, i32, i32, i32 }
%struct.app_flags = type <{ i16, i8, i8 }>

; Function Attrs: mustprogress nounwind uwtable
define linkonce_odr hidden noundef ptr @_ZNK3app7get_argEj(ptr noundef nonnull align 8 dereferenceable(32) %0, i32 noundef %1) #4 comdat align 2 {
  %3 = alloca ptr, align 8
  %4 = alloca i32, align 4
  store ptr %0, ptr %3, align 8, !tbaa !32
  store i32 %1, ptr %4, align 4, !tbaa !8
  %5 = load ptr, ptr %3, align 8
  %6 = getelementptr inbounds nuw %class.app, ptr %5, i32 0, i32 4
  %7 = load i32, ptr %4, align 4, !tbaa !8
  %8 = zext i32 %7 to i64
  %9 = getelementptr inbounds nuw [0 x ptr], ptr %6, i64 0, i64 %8
  %10 = load ptr, ptr %9, align 8, !tbaa !591
  ret ptr %10
}

; Function Attrs: mustprogress nounwind uwtable
define linkonce_odr hidden noundef i32 @_ZNK3app12get_num_argsEv(ptr noundef nonnull align 8 dereferenceable(32) %0) #4 comdat align 2 {
  %2 = alloca ptr, align 8
  store ptr %0, ptr %2, align 8, !tbaa !32
  %3 = load ptr, ptr %2, align 8
  %4 = getelementptr inbounds nuw %class.app, ptr %3, i32 0, i32 2
  %5 = load i32, ptr %4, align 8, !tbaa !854
  ret i32 %5
}

; Function Attrs: mustprogress uwtable
define linkonce_odr hidden noundef ptr @_ZNK11ast_manager8get_factEPK3app(ptr noundef nonnull align 8 dereferenceable(976) %0, ptr noundef %1) #6 comdat align 2 {
  %3 = alloca ptr, align 8
  %4 = alloca ptr, align 8
  store ptr %0, ptr %3, align 8, !tbaa !530
  store ptr %1, ptr %4, align 8, !tbaa !32
  %5 = load ptr, ptr %4, align 8, !tbaa !32
  %6 = load ptr, ptr %4, align 8, !tbaa !32
  %7 = call noundef i32 @_ZNK3app12get_num_argsEv(ptr noundef nonnull align 8 dereferenceable(32) %6)
  %8 = sub i32 %7, 1
  %9 = call noundef ptr @_ZNK3app7get_argEj(ptr noundef nonnull align 8 dereferenceable(32) %5, i32 noundef %8)
  ret ptr %9
}

; Function Attrs: mustprogress uwtable
define linkonce_odr hidden noundef ptr @_ZN11ast_manager6mk_notEP4expr(ptr noundef nonnull align 8 dereferenceable(976) %0, ptr noundef %1) #6 comdat align 2 {
  %3 = alloca ptr, align 8
  %4 = alloca ptr, align 8
  store ptr %0, ptr %3, align 8, !tbaa !530
  store ptr %1, ptr %4, align 8, !tbaa !591
  %5 = load ptr, ptr %3, align 8
  %6 = load ptr, ptr %4, align 8, !tbaa !591
  %7 = call noundef ptr @_ZN11ast_manager6mk_appEiiP4expr(ptr noundef nonnull align 8 dereferenceable(976) %5, i32 noundef 0, i32 noundef 8, ptr noundef %6)
  ret ptr %7
}

; Function Attrs: mustprogress nounwind uwtable
define linkonce_odr hidden noundef zeroext i1 @_ZNK11ast_manager7is_trueEPK4expr(ptr noundef nonnull align 8 dereferenceable(976) %0, ptr noundef %1) #4 comdat align 2 {
  %3 = alloca ptr, align 8
  %4 = alloca ptr, align 8
  store ptr %0, ptr %3, align 8, !tbaa !530
  store ptr %1, ptr %4, align 8, !tbaa !591
  %5 = load ptr, ptr %3, align 8
  %6 = load ptr, ptr %4, align 8, !tbaa !591
  %7 = getelementptr inbounds nuw %class.ast_manager, ptr %5, i32 0, i32 15
  %8 = load ptr, ptr %7, align 8, !tbaa !647
  %9 = icmp eq ptr %6, %8
  ret i1 %9
}

; Function Attrs: mustprogress nounwind uwtable
define linkonce_odr hidden noundef ptr @_ZNK3smt5enode8get_rootEv(ptr noundef nonnull align 8 dereferenceable(112) %0) #4 comdat align 2 {
  %2 = alloca ptr, align 8
  store ptr %0, ptr %2, align 8, !tbaa !582
  %3 = load ptr, ptr %2, align 8
  %4 = getelementptr inbounds nuw %"class.smt::enode", ptr %3, i32 0, i32 1
  %5 = load ptr, ptr %4, align 8, !tbaa !583
  ret ptr %5
}

; Function Attrs: mustprogress nounwind uwtable
define linkonce_odr hidden noundef ptr @_ZNK3smt5enode8get_exprEv(ptr noundef nonnull align 8 dereferenceable(112) %0) #4 comdat align 2 {
  %2 = alloca ptr, align 8
  store ptr %0, ptr %2, align 8, !tbaa !582
  %3 = load ptr, ptr %2, align 8
  %4 = getelementptr inbounds nuw %"class.smt::enode", ptr %3, i32 0, i32 0
  %5 = load ptr, ptr %4, align 8, !tbaa !641
  ret ptr %5
}

; Function Attrs: mustprogress nounwind uwtable
define linkonce_odr hidden noundef nonnull align 8 dereferenceable(976) ptr @_ZN3smt19conflict_resolution11get_managerEv(ptr noundef nonnull align 8 dereferenceable(356) %0) #4 comdat align 2 {
  %2 = alloca ptr, align 8
  store ptr %0, ptr %2, align 8, !tbaa !533
  %3 = load ptr, ptr %2, align 8
  %4 = getelementptr inbounds nuw %"class.smt::conflict_resolution", ptr %3, i32 0, i32 1
  %5 = load ptr, ptr %4, align 8, !tbaa !571
  ret ptr %5
}

; Function Attrs: mustprogress uwtable
define hidden noundef ptr @_ZN3smt33eq_root_propagation_justification8mk_proofERNS_19conflict_resolutionE(ptr noundef nonnull align 8 dereferenceable(24) %0, ptr noundef nonnull align 8 dereferenceable(356) %1) unnamed_addr #6 align 2 {
  %3 = alloca ptr, align 8
  %4 = alloca ptr, align 8
  %5 = alloca ptr, align 8
  %6 = alloca ptr, align 8
  %7 = alloca ptr, align 8
  %8 = alloca ptr, align 8
  %9 = alloca ptr, align 8
  %10 = alloca ptr, align 8
  %11 = alloca ptr, align 8
  %12 = alloca i32, align 4
  store ptr %0, ptr %4, align 8, !tbaa !643
  store ptr %1, ptr %5, align 8, !tbaa !533
  %13 = load ptr, ptr %4, align 8
  call void @llvm.lifetime.start.p0(i64 8, ptr %6) #3
  %14 = load ptr, ptr %5, align 8, !tbaa !533
  %15 = call noundef nonnull align 8 dereferenceable(976) ptr @_ZN3smt19conflict_resolution11get_managerEv(ptr noundef nonnull align 8 dereferenceable(356) %14)
  store ptr %15, ptr %6, align 8, !tbaa !530
  call void @llvm.lifetime.start.p0(i64 8, ptr %7) #3
  %16 = getelementptr inbounds nuw %"class.smt::eq_root_propagation_justification", ptr %13, i32 0, i32 1
  %17 = load ptr, ptr %16, align 8, !tbaa !645
  %18 = call noundef ptr @_ZNK3smt5enode8get_exprEv(ptr noundef nonnull align 8 dereferenceable(112) %17)
  store ptr %18, ptr %7, align 8, !tbaa !591
  call void @llvm.lifetime.start.p0(i64 8, ptr %8) #3
  %19 = getelementptr inbounds nuw %"class.smt::eq_root_propagation_justification", ptr %13, i32 0, i32 1
  %20 = load ptr, ptr %19, align 8, !tbaa !645
  %21 = call noundef ptr @_ZNK3smt5enode8get_rootEv(ptr noundef nonnull align 8 dereferenceable(112) %20)
  %22 = call noundef ptr @_ZNK3smt5enode8get_exprEv(ptr noundef nonnull align 8 dereferenceable(112) %21)
  store ptr %22, ptr %8, align 8, !tbaa !591
  call void @llvm.lifetime.start.p0(i64 8, ptr %9) #3
  %23 = load ptr, ptr %5, align 8, !tbaa !533
  %24 = getelementptr inbounds nuw %"class.smt::eq_root_propagation_justification", ptr %13, i32 0, i32 1
  %25 = load ptr, ptr %24, align 8, !tbaa !645
  %26 = getelementptr inbounds nuw %"class.smt::eq_root_propagation_justification", ptr %13, i32 0, i32 1
  %27 = load ptr, ptr %26, align 8, !tbaa !645
  %28 = call noundef ptr @_ZNK3smt5enode8get_rootEv(ptr noundef nonnull align 8 dereferenceable(112) %27)
  %29 = call noundef ptr @_ZN3smt19conflict_resolution9get_proofEPNS_5enodeES2_(ptr noundef nonnull align 8 dereferenceable(356) %23, ptr noundef %25, ptr noundef %28)
  store ptr %29, ptr %9, align 8, !tbaa !32
  %30 = load ptr, ptr %9, align 8, !tbaa !32
  %31 = icmp ne ptr %30, null
  br i1 %31, label %32, label %53

32:                                               ; preds = %2
  call void @llvm.lifetime.start.p0(i64 8, ptr %10) #3
  %33 = load ptr, ptr %6, align 8, !tbaa !530
  %34 = load ptr, ptr %8, align 8, !tbaa !591
  %35 = call noundef zeroext i1 @_ZNK11ast_manager7is_trueEPK4expr(ptr noundef nonnull align 8 dereferenceable(976) %33, ptr noundef %34)
  br i1 %35, label %36, label %38

36:                                               ; preds = %32
  %37 = load ptr, ptr %7, align 8, !tbaa !591
  store ptr %37, ptr %10, align 8, !tbaa !591
  br label %42

38:                                               ; preds = %32
  %39 = load ptr, ptr %6, align 8, !tbaa !530
  %40 = load ptr, ptr %7, align 8, !tbaa !591
  %41 = call noundef ptr @_ZN11ast_manager6mk_notEP4expr(ptr noundef nonnull align 8 dereferenceable(976) %39, ptr noundef %40)
  store ptr %41, ptr %10, align 8, !tbaa !591
  br label %42

42:                                               ; preds = %38, %36
  call void @llvm.lifetime.start.p0(i64 8, ptr %11) #3
  %43 = load ptr, ptr %6, align 8, !tbaa !530
  %44 = load ptr, ptr %6, align 8, !tbaa !530
  %45 = load ptr, ptr %9, align 8, !tbaa !32
  %46 = call noundef ptr @_ZNK11ast_manager8get_factEPK3app(ptr noundef nonnull align 8 dereferenceable(976) %44, ptr noundef %45)
  %47 = load ptr, ptr %10, align 8, !tbaa !591
  %48 = call noundef ptr @_ZN11ast_manager10mk_rewriteEP4exprS1_(ptr noundef nonnull align 8 dereferenceable(976) %43, ptr noundef %46, ptr noundef %47)
  store ptr %48, ptr %11, align 8, !tbaa !32
  %49 = load ptr, ptr %6, align 8, !tbaa !530
  %50 = load ptr, ptr %9, align 8, !tbaa !32
  %51 = load ptr, ptr %11, align 8, !tbaa !32
  %52 = call noundef ptr @_ZN11ast_manager15mk_modus_ponensEP3appS1_(ptr noundef nonnull align 8 dereferenceable(976) %49, ptr noundef %50, ptr noundef %51)
  store ptr %52, ptr %3, align 8
  store i32 1, ptr %12, align 4
  call void @llvm.lifetime.end.p0(i64 8, ptr %11) #3
  call void @llvm.lifetime.end.p0(i64 8, ptr %10) #3
  br label %54

53:                                               ; preds = %2
  store ptr null, ptr %3, align 8
  store i32 1, ptr %12, align 4
  br label %54

54:                                               ; preds = %53, %42
  call void @llvm.lifetime.end.p0(i64 8, ptr %9) #3
  call void @llvm.lifetime.end.p0(i64 8, ptr %8) #3
  call void @llvm.lifetime.end.p0(i64 8, ptr %7) #3
  call void @llvm.lifetime.end.p0(i64 8, ptr %6) #3
  %55 = load ptr, ptr %3, align 8
  ret ptr %55
}