; Function Attrs: mustprogress uwtable
define hidden noundef ptr @_ZN3smt33eq_root_propagation_justification8mk_proofERNS_19conflict_resolutionE(ptr noundef nonnull readonly align 8 captures(none) dereferenceable(24) %0, ptr noundef nonnull align 8 dereferenceable(356) %1) unnamed_addr #5 align 2 {
  %3 = getelementptr inbounds nuw i8, ptr %1, i64 8
  %4 = load ptr, ptr %3, align 8, !tbaa !86
  %5 = getelementptr inbounds nuw i8, ptr %0, i64 16
  %6 = load ptr, ptr %5, align 8, !tbaa !184
  %7 = load ptr, ptr %6, align 8, !tbaa !109
  %8 = getelementptr inbounds nuw i8, ptr %6, i64 8
  %9 = load ptr, ptr %8, align 8, !tbaa !97
  %10 = load ptr, ptr %9, align 8, !tbaa !109
  %11 = tail call noundef ptr @_ZN3smt19conflict_resolution9get_proofEPNS_5enodeES2_(ptr noundef nonnull align 8 dereferenceable(356) %1, ptr noundef nonnull %6, ptr noundef nonnull %9)
  %.not = icmp eq ptr %11, null
  br i1 %.not, label %28, label %12

12:                                               ; preds = %2
  %13 = getelementptr inbounds nuw i8, ptr %4, i64 856
  %14 = load ptr, ptr %13, align 8, !tbaa !186
  %15 = icmp eq ptr %10, %14
  br i1 %15, label %18, label %16

16:                                               ; preds = %12
  %17 = tail call noundef ptr @_ZN11ast_manager6mk_appEiiP4expr(ptr noundef nonnull align 8 dereferenceable(976) %4, i32 noundef 0, i32 noundef 8, ptr noundef %7)
  br label %18

18:                                               ; preds = %12, %16
  %.017 = phi ptr [ %17, %16 ], [ %7, %12 ]
  %19 = getelementptr inbounds nuw i8, ptr %11, i64 24
  %20 = load i32, ptr %19, align 8, !tbaa !187
  %21 = add i32 %20, -1
  %22 = getelementptr inbounds nuw i8, ptr %11, i64 32
  %23 = zext i32 %21 to i64
  %24 = getelementptr inbounds nuw [0 x ptr], ptr %22, i64 0, i64 %23
  %25 = load ptr, ptr %24, align 8, !tbaa !192
  %26 = tail call noundef ptr @_ZN11ast_manager10mk_rewriteEP4exprS1_(ptr noundef nonnull align 8 dereferenceable(976) %4, ptr noundef %25, ptr noundef %.017)
  %27 = tail call noundef ptr @_ZN11ast_manager15mk_modus_ponensEP3appS1_(ptr noundef nonnull align 8 dereferenceable(976) %4, ptr noundef nonnull %11, ptr noundef %26)
  br label %28

28:                                               ; preds = %2, %18
  %.0 = phi ptr [ %27, %18 ], [ null, %2 ]
  ret ptr %.0
}